(lp0
(lp1
F0.2468690574169159
aF-0.20062097907066345
aF0.009136459790170193
aa(lp2
F0.24860930442810059
aF-0.1322328895330429
aF0.20920506119728088
aa(lp3
F0.25198501348495483
aF0.01986263133585453
aF0.03489868342876434
aa.