(lp0
(lp1
F0.2557827944755554
aF-0.1649013215303421
aF0.04904642328619957
aa(lp2
F0.24689575958251953
aF-0.12587525963783264
aF0.22855517268180847
aa(lp3
F0.25383870911598205
aF-0.0006110721733421087
aF-0.01757928542792797
aa.