(lp0
(lp1
F0.2537827944755554
aF-0.1749013215303421
aF0.04904642328619957
aa(lp2
F0.25389575958251953
aF-0.13087525963783264
aF0.22855517268180847
aa(lp3
F0.25683870911598206
aF-0.0006110721733421087
aF-0.01757928542792797
aa.
